; Function Attrs: mustprogress nounwind uwtable
define internal void @_ZN12_GLOBAL__N_118NullabilityCheckerD0Ev(ptr noundef nonnull align 8 dereferenceable(161) initializes((0, 8)) %0) unnamed_addr #0 align 2 {
  store ptr getelementptr inbounds nuw inrange(-16, 32) (i8, ptr @_ZTVN12_GLOBAL__N_118NullabilityCheckerE, i64 16), ptr %0, align 8
  br label %2

2:                                                ; preds = %_ZNSt10unique_ptrIN5clang4ento7BugTypeESt14default_deleteIS2_EED2Ev.exit.i, %1
  %.idx.i = phi i64 [ 160, %1 ], [ %.add.i, %_ZNSt10unique_ptrIN5clang4ento7BugTypeESt14default_deleteIS2_EED2Ev.exit.i ]
  %.add.i = add nsw i64 %.idx.i, -8
  %.ptr1.i = getelementptr inbounds i8, ptr %0, i64 %.add.i
  %3 = load ptr, ptr %.ptr1.i, align 8
  %.not.i.i = icmp eq ptr %3, null
  br i1 %.not.i.i, label %_ZNSt10unique_ptrIN5clang4ento7BugTypeESt14default_deleteIS2_EED2Ev.exit.i, label %_ZNKSt14default_deleteIN5clang4ento7BugTypeEEclEPS2_.exit.i.i

_ZNKSt14default_deleteIN5clang4ento7BugTypeEEclEPS2_.exit.i.i: ; preds = %2
  %4 = load ptr, ptr %3, align 8
  %5 = getelementptr inbounds nuw i8, ptr %4, i64 16
  %6 = load ptr, ptr %5, align 8
  tail call void %6(ptr noundef nonnull align 8 dereferenceable(97) %3) #22
  br label %_ZNSt10unique_ptrIN5clang4ento7BugTypeESt14default_deleteIS2_EED2Ev.exit.i

_ZNSt10unique_ptrIN5clang4ento7BugTypeESt14default_deleteIS2_EED2Ev.exit.i: ; preds = %_ZNKSt14default_deleteIN5clang4ento7BugTypeEEclEPS2_.exit.i.i, %2
  store ptr null, ptr %.ptr1.i, align 8
  %7 = icmp eq i64 %.add.i, 120
  br i1 %7, label %_ZN12_GLOBAL__N_118NullabilityCheckerD2Ev.exit, label %2

_ZN12_GLOBAL__N_118NullabilityCheckerD2Ev.exit:   ; preds = %_ZNSt10unique_ptrIN5clang4ento7BugTypeESt14default_deleteIS2_EED2Ev.exit.i
  tail call void @_ZN5clang15ProgramPointTagD2Ev(ptr noundef nonnull align 8 dereferenceable(161) %0) #22
  tail call void @_ZdlPvm(ptr noundef nonnull %0, i64 noundef 168) #21
  ret void
}